; Function Attrs: nounwind uwtable
define dso_local i64 @cash_mul_flt4(ptr noundef readonly captures(none) %0) local_unnamed_addr #0 {
  %2 = getelementptr inbounds nuw i8, ptr %0, i64 32
  %3 = load i64, ptr %2, align 8
  %4 = getelementptr inbounds nuw i8, ptr %0, i64 48
  %5 = load i64, ptr %4, align 8
  %6 = trunc i64 %5 to i32
  %7 = bitcast i32 %6 to float
  %8 = fpext float %7 to double
  %9 = sitofp i64 %3 to double
  %10 = fmul double %9, %8
  %11 = tail call double @llvm.fabs.f64(double %10)
  %12 = fcmp oeq double %11, 0x7FF0000000000000
  br i1 %12, label %13, label %17, !prof !17

13:                                               ; preds = %1
  %14 = tail call double @llvm.fabs.f64(double %8)
  %15 = fcmp oeq double %14, 0x7FF0000000000000
  br i1 %15, label %17, label %16

16:                                               ; preds = %13
  tail call void @float_overflow_error() #17
  unreachable

17:                                               ; preds = %13, %1
  %18 = fcmp oeq double %10, 0.000000e+00
  br i1 %18, label %19, label %float8_mul.exit.i, !prof !17

19:                                               ; preds = %17
  %20 = icmp ne i64 %3, 0
  %21 = fcmp une float %7, 0.000000e+00
  %or.cond.i.i = and i1 %20, %21
  br i1 %or.cond.i.i, label %22, label %float8_mul.exit.i

22:                                               ; preds = %19
  tail call void @float_underflow_error() #17
  unreachable

float8_mul.exit.i:                                ; preds = %19, %17
  %23 = tail call double @llvm.rint.f64(double %10)
  %24 = fcmp uno double %23, 0.000000e+00
  br i1 %24, label %.critedge.i, label %25

25:                                               ; preds = %float8_mul.exit.i
  %26 = fcmp ult double %23, 0xC3E0000000000000
  %27 = fcmp uge double %23, 0x43E0000000000000
  %.not6.i = or i1 %26, %27
  br i1 %.not6.i, label %.critedge.i, label %cash_mul_float8.exit, !prof !17

.critedge.i:                                      ; preds = %25, %float8_mul.exit.i
  %28 = tail call zeroext i1 @errstart_cold(i32 noundef 21, ptr noundef null) #16
  tail call void @llvm.assume(i1 %28)
  %29 = tail call i32 @errcode(i32 noundef 50331778) #13
  %30 = tail call i32 (ptr, ...) @errmsg(ptr noundef nonnull @.str.25) #13
  tail call void @errfinish(ptr noundef nonnull @.str.7, i32 noundef 124, ptr noundef nonnull @__func__.cash_mul_float8) #13
  unreachable

cash_mul_float8.exit:                             ; preds = %25
  %31 = fptosi double %23 to i64
  ret i64 %31
}